; Function Attrs: mustprogress nounwind uwtable
define hidden void @_ZN6Assimp11X3DImporterC2Ev(ptr noundef nonnull align 8 dereferenceable(120) %0) unnamed_addr #8 align 2 {
  tail call void @_ZN6Assimp12BaseImporterC2Ev(ptr noundef nonnull align 8 dereferenceable(72) %0) #31
  store ptr getelementptr inbounds nuw inrange(-16, 48) (i8, ptr @_ZTVN6Assimp11X3DImporterE, i64 16), ptr %0, align 8
  %2 = getelementptr inbounds nuw i8, ptr %0, i64 72
  %3 = getelementptr inbounds nuw i8, ptr %0, i64 80
  store ptr %2, ptr %3, align 8
  store ptr %2, ptr %2, align 8
  %4 = getelementptr inbounds nuw i8, ptr %0, i64 88
  tail call void @llvm.memset.p0.i64(ptr noundef nonnull align 8 dereferenceable(32) %4, i8 0, i64 32, i1 false)
  ret void
}